; Function Attrs: nounwind uwtable
define ptr @l_Lean_Omega_IntList_sub___lambda__1(ptr noundef %0, ptr noundef %1) local_unnamed_addr #0 {
  %3 = ptrtoint ptr %0 to i64
  %4 = and i64 %3, 1
  %.not.i = icmp eq i64 %4, 0
  br i1 %.not.i, label %8, label %5

5:                                                ; preds = %2
  %6 = lshr i64 %3, 1
  %7 = trunc i64 %6 to i32
  br label %lean_obj_tag.exit

8:                                                ; preds = %2
  %9 = getelementptr i8, ptr %0, i64 4
  %.val.i = load i32, ptr %9, align 4
  %10 = lshr i32 %.val.i, 24
  br label %lean_obj_tag.exit

lean_obj_tag.exit:                                ; preds = %5, %8
  %.0.i = phi i32 [ %7, %5 ], [ %10, %8 ]
  %11 = icmp eq i32 %.0.i, 0
  %12 = ptrtoint ptr %1 to i64
  %13 = and i64 %12, 1
  %.not.i18 = icmp eq i64 %13, 0
  br i1 %11, label %14, label %49

14:                                               ; preds = %lean_obj_tag.exit
  br i1 %.not.i18, label %18, label %15

15:                                               ; preds = %14
  %16 = lshr i64 %12, 1
  %17 = trunc i64 %16 to i32
  br label %lean_obj_tag.exit21

18:                                               ; preds = %14
  %19 = getelementptr i8, ptr %1, i64 4
  %.val.i20 = load i32, ptr %19, align 4
  %20 = lshr i32 %.val.i20, 24
  br label %lean_obj_tag.exit21

lean_obj_tag.exit21:                              ; preds = %15, %18
  %.0.i19 = phi i32 [ %17, %15 ], [ %20, %18 ]
  %21 = icmp eq i32 %.0.i19, 0
  br i1 %21, label %22, label %24

22:                                               ; preds = %lean_obj_tag.exit21
  %23 = load ptr, ptr @l_Lean_Omega_IntList_sub___lambda__1___closed__1, align 8, !tbaa !4
  br label %lean_int_sub.exit

24:                                               ; preds = %lean_obj_tag.exit21
  %25 = getelementptr inbounds nuw i8, ptr %1, i64 8
  %26 = load ptr, ptr %25, align 8, !tbaa !4
  %27 = load ptr, ptr @l_Lean_Omega_IntList_get___closed__1, align 8, !tbaa !4
  %28 = ptrtoint ptr %27 to i64
  %29 = and i64 %28, 1
  %.not.i22 = icmp eq i64 %29, 0
  br i1 %.not.i22, label %.critedge.i, label %30, !prof !12

30:                                               ; preds = %24
  %31 = ptrtoint ptr %26 to i64
  %32 = and i64 %31, 1
  %.not7.i = icmp eq i64 %32, 0
  br i1 %.not7.i, label %.critedge.i, label %33, !prof !12

33:                                               ; preds = %30
  %34 = shl i64 %28, 31
  %35 = ashr i64 %34, 32
  %36 = shl i64 %31, 31
  %37 = ashr i64 %36, 32
  %38 = sub nsw i64 %35, %37
  %39 = add nsw i64 %38, 2147483648
  %40 = icmp ult i64 %39, 4294967296
  br i1 %40, label %41, label %46, !prof !11

41:                                               ; preds = %33
  %42 = shl nsw i64 %38, 1
  %43 = and i64 %42, 8589934590
  %44 = or disjoint i64 %43, 1
  %45 = inttoptr i64 %44 to ptr
  br label %lean_int_sub.exit

46:                                               ; preds = %33
  %47 = tail call ptr @lean_big_int64_to_int(i64 noundef range(i64 -4611686016279904256, 4611686018427387905) %38) #3
  br label %lean_int_sub.exit

.critedge.i:                                      ; preds = %30, %24
  %48 = tail call ptr @lean_int_big_sub(ptr noundef %27, ptr noundef %26) #3
  br label %lean_int_sub.exit

49:                                               ; preds = %lean_obj_tag.exit
  br i1 %.not.i18, label %53, label %50

50:                                               ; preds = %49
  %51 = lshr i64 %12, 1
  %52 = trunc i64 %51 to i32
  br label %lean_obj_tag.exit27

53:                                               ; preds = %49
  %54 = getelementptr i8, ptr %1, i64 4
  %.val.i26 = load i32, ptr %54, align 4
  %55 = lshr i32 %.val.i26, 24
  br label %lean_obj_tag.exit27

lean_obj_tag.exit27:                              ; preds = %50, %53
  %.0.i25 = phi i32 [ %52, %50 ], [ %55, %53 ]
  %56 = icmp eq i32 %.0.i25, 0
  %57 = getelementptr inbounds nuw i8, ptr %0, i64 8
  %58 = load ptr, ptr %57, align 8, !tbaa !4
  br i1 %56, label %59, label %82

59:                                               ; preds = %lean_obj_tag.exit27
  %60 = load ptr, ptr @l_Lean_Omega_IntList_get___closed__1, align 8, !tbaa !4
  %61 = ptrtoint ptr %58 to i64
  %62 = and i64 %61, 1
  %.not.i28 = icmp eq i64 %62, 0
  br i1 %.not.i28, label %.critedge.i31, label %63, !prof !12

63:                                               ; preds = %59
  %64 = ptrtoint ptr %60 to i64
  %65 = and i64 %64, 1
  %.not7.i29 = icmp eq i64 %65, 0
  br i1 %.not7.i29, label %.critedge.i31, label %66, !prof !12

66:                                               ; preds = %63
  %67 = shl i64 %61, 31
  %68 = ashr i64 %67, 32
  %69 = shl i64 %64, 31
  %70 = ashr i64 %69, 32
  %71 = sub nsw i64 %68, %70
  %72 = add nsw i64 %71, 2147483648
  %73 = icmp ult i64 %72, 4294967296
  br i1 %73, label %74, label %79, !prof !11

74:                                               ; preds = %66
  %75 = shl nsw i64 %71, 1
  %76 = and i64 %75, 8589934590
  %77 = or disjoint i64 %76, 1
  %78 = inttoptr i64 %77 to ptr
  br label %lean_int_sub.exit

79:                                               ; preds = %66
  %80 = tail call ptr @lean_big_int64_to_int(i64 noundef range(i64 -4611686016279904256, 4611686018427387905) %71) #3
  br label %lean_int_sub.exit

.critedge.i31:                                    ; preds = %63, %59
  %81 = tail call ptr @lean_int_big_sub(ptr noundef %58, ptr noundef %60) #3
  br label %lean_int_sub.exit

82:                                               ; preds = %lean_obj_tag.exit27
  %83 = getelementptr inbounds nuw i8, ptr %1, i64 8
  %84 = load ptr, ptr %83, align 8, !tbaa !4
  %85 = ptrtoint ptr %58 to i64
  %86 = and i64 %85, 1
  %.not.i33 = icmp eq i64 %86, 0
  br i1 %.not.i33, label %.critedge.i36, label %87, !prof !12

87:                                               ; preds = %82
  %88 = ptrtoint ptr %84 to i64
  %89 = and i64 %88, 1
  %.not7.i34 = icmp eq i64 %89, 0
  br i1 %.not7.i34, label %.critedge.i36, label %90, !prof !12

90:                                               ; preds = %87
  %91 = shl i64 %85, 31
  %92 = ashr i64 %91, 32
  %93 = shl i64 %88, 31
  %94 = ashr i64 %93, 32
  %95 = sub nsw i64 %92, %94
  %96 = add nsw i64 %95, 2147483648
  %97 = icmp ult i64 %96, 4294967296
  br i1 %97, label %98, label %103, !prof !11

98:                                               ; preds = %90
  %99 = shl nsw i64 %95, 1
  %100 = and i64 %99, 8589934590
  %101 = or disjoint i64 %100, 1
  %102 = inttoptr i64 %101 to ptr
  br label %lean_int_sub.exit

103:                                              ; preds = %90
  %104 = tail call ptr @lean_big_int64_to_int(i64 noundef range(i64 -4611686016279904256, 4611686018427387905) %95) #3
  br label %lean_int_sub.exit

.critedge.i36:                                    ; preds = %87, %82
  %105 = tail call ptr @lean_int_big_sub(ptr noundef %58, ptr noundef %84) #3
  br label %lean_int_sub.exit

lean_int_sub.exit:                                ; preds = %.critedge.i36, %103, %98, %.critedge.i31, %79, %74, %.critedge.i, %46, %41, %22
  %.0 = phi ptr [ %23, %22 ], [ %48, %.critedge.i ], [ %45, %41 ], [ %47, %46 ], [ %81, %.critedge.i31 ], [ %78, %74 ], [ %80, %79 ], [ %105, %.critedge.i36 ], [ %102, %98 ], [ %104, %103 ]
  ret ptr %.0
}